target datalayout = "e-m:e-p270:32:32-p271:32:32-p272:64:64-i64:64-i128:128-f80:128-n8:16:32:64-S128"
target triple = "x86_64-pc-linux-gnu"

%struct.H5D_earray_filt_elmt_t = type { i64, i32, i32 }

@H5D_init_g = external global i8, align 1
@H5_libterm_g = external global i8, align 1
@__const.H5D__earray_filt_fill.fill_val = private unnamed_addr constant %struct.H5D_earray_filt_elmt_t { i64 -1, i32 0, i32 0 }, align 8

; Function Attrs: nounwind uwtable
define internal i32 @H5D__earray_filt_fill(ptr noundef %0, i64 noundef %1) #0 {
  %3 = alloca ptr, align 8
  %4 = alloca i64, align 8
  %5 = alloca %struct.H5D_earray_filt_elmt_t, align 8
  store ptr %0, ptr %3, align 8, !tbaa !80
  store i64 %1, ptr %4, align 8, !tbaa !10
  call void @llvm.lifetime.start.p0(i64 16, ptr %5) #8
  call void @llvm.memcpy.p0.p0.i64(ptr align 8 %5, ptr align 8 @__const.H5D__earray_filt_fill.fill_val, i64 16, i1 false)
  %6 = load i8, ptr @H5D_init_g, align 1, !tbaa !14, !range !16, !noundef !17
  %7 = trunc i8 %6 to i1
  br i1 %7, label %12, label %8

8:                                                ; preds = %2
  %9 = load i8, ptr @H5_libterm_g, align 1, !tbaa !14, !range !16, !noundef !17
  %10 = trunc i8 %9 to i1
  %11 = xor i1 %10, true
  br label %12

12:                                               ; preds = %8, %2
  %13 = phi i1 [ true, %2 ], [ %11, %8 ]
  %14 = xor i1 %13, true
  %15 = xor i1 %14, true
  %16 = zext i1 %15 to i32
  %17 = sext i32 %16 to i64
  %18 = call i64 @llvm.expect.i64(i64 %17, i64 1)
  %19 = icmp ne i64 %18, 0
  br i1 %19, label %20, label %24

20:                                               ; preds = %12
  %21 = load ptr, ptr %3, align 8, !tbaa !80
  %22 = load i64, ptr %4, align 8, !tbaa !10
  %23 = call i32 @H5VM_array_fill(ptr noundef %21, ptr noundef %5, i64 noundef 16, i64 noundef %22)
  br label %24

24:                                               ; preds = %20, %12
  call void @llvm.lifetime.end.p0(i64 16, ptr %5) #8
  ret i32 0
}