; Function Attrs: nounwind uwtable
define internal noundef i32 @H5D__earray_filt_fill(ptr noundef %0, i64 noundef %1) #0 {
  %3 = alloca %struct.H5D_earray_filt_elmt_t, align 8
  call void @llvm.lifetime.start.p0(i64 16, ptr nonnull %3) #11
  call void @llvm.memcpy.p0.p0.i64(ptr noundef nonnull align 8 dereferenceable(16) %3, ptr noundef nonnull align 8 dereferenceable(16) @__const.H5D__earray_filt_fill.fill_val, i64 16, i1 false)
  %4 = load i8, ptr @H5D_init_g, align 1, !tbaa !3, !range !7, !noundef !8
  %5 = trunc nuw i8 %4 to i1
  %6 = load i8, ptr @H5_libterm_g, align 1, !range !7
  %7 = trunc nuw i8 %6 to i1
  %8 = xor i1 %7, true
  %9 = select i1 %5, i1 true, i1 %8
  br i1 %9, label %10, label %12, !prof !9

10:                                               ; preds = %2
  %11 = call i32 @H5VM_array_fill(ptr noundef %0, ptr noundef nonnull %3, i64 noundef 16, i64 noundef %1) #11
  br label %12

12:                                               ; preds = %10, %2
  call void @llvm.lifetime.end.p0(i64 16, ptr nonnull %3) #11
  ret i32 0
}